target datalayout = "e-m:e-p270:32:32-p271:32:32-p272:64:64-i64:64-i128:128-f80:128-n8:16:32:64-S128"
target triple = "x86_64-pc-linux-gnu"

%struct.hashmanuf = type { i8, [3 x i8], [9 x i8], [64 x i8], [64 x i8] }

@manuf_hashtable = internal global ptr null, align 8

; Function Attrs: null_pointer_is_valid sspstrong uwtable
define internal ptr @manuf_name_lookup(ptr noundef %0, i64 noundef %1) #3 {
  %3 = alloca ptr, align 8
  %4 = alloca ptr, align 8
  %5 = alloca i64, align 8
  %6 = alloca i32, align 4
  %7 = alloca i8, align 1
  %8 = alloca ptr, align 8
  %9 = alloca i32, align 4
  %10 = alloca ptr, align 8
  %11 = alloca ptr, align 8
  store ptr %0, ptr %4, align 8
  store i64 %1, ptr %5, align 8
  call void @llvm.lifetime.start.p0(i64 4, ptr %6) #16
  call void @llvm.lifetime.start.p0(i64 1, ptr %7) #16
  call void @llvm.lifetime.start.p0(i64 8, ptr %8) #16
  br label %12

12:                                               ; preds = %2
  br label %13

13:                                               ; preds = %12
  br label %14

14:                                               ; preds = %13
  %15 = load ptr, ptr %4, align 8
  %16 = getelementptr i8, ptr %15, i64 0
  %17 = load i8, ptr %16, align 1
  %18 = zext i8 %17 to i32
  store i32 %18, ptr %6, align 4
  %19 = load i32, ptr %6, align 4
  %20 = shl i32 %19, 8
  store i32 %20, ptr %6, align 4
  %21 = load ptr, ptr %4, align 8
  %22 = getelementptr i8, ptr %21, i64 1
  %23 = load i8, ptr %22, align 1
  store i8 %23, ptr %7, align 1
  %24 = load i32, ptr %6, align 4
  %25 = load i8, ptr %7, align 1
  %26 = zext i8 %25 to i32
  %27 = or i32 %24, %26
  store i32 %27, ptr %6, align 4
  %28 = load i32, ptr %6, align 4
  %29 = shl i32 %28, 8
  store i32 %29, ptr %6, align 4
  %30 = load ptr, ptr %4, align 8
  %31 = getelementptr i8, ptr %30, i64 2
  %32 = load i8, ptr %31, align 1
  store i8 %32, ptr %7, align 1
  %33 = load i32, ptr %6, align 4
  %34 = load i8, ptr %7, align 1
  %35 = zext i8 %34 to i32
  %36 = or i32 %33, %35
  store i32 %36, ptr %6, align 4
  %37 = load ptr, ptr @manuf_hashtable, align 8
  %38 = load i32, ptr %6, align 4
  %39 = zext i32 %38 to i64
  %40 = inttoptr i64 %39 to ptr
  %41 = call ptr @wmem_map_lookup(ptr noundef %37, ptr noundef %40)
  store ptr %41, ptr %8, align 8
  %42 = load ptr, ptr %8, align 8
  %43 = icmp ne ptr %42, null
  br i1 %43, label %44, label %52

44:                                               ; preds = %14
  %45 = load ptr, ptr %8, align 8
  %46 = getelementptr inbounds nuw %struct.hashmanuf, ptr %45, i32 0, i32 0
  %47 = load i8, ptr %46, align 1
  %48 = zext i8 %47 to i32
  %49 = or i32 %48, 1
  %50 = trunc i32 %49 to i8
  store i8 %50, ptr %46, align 1
  %51 = load ptr, ptr %8, align 8
  store ptr %51, ptr %3, align 8
  store i32 1, ptr %9, align 4
  br label %96

52:                                               ; preds = %14
  %53 = load i32, ptr %6, align 4
  %54 = and i32 %53, 65536
  %55 = icmp ne i32 %54, 0
  br i1 %55, label %56, label %75

56:                                               ; preds = %52
  %57 = load i32, ptr %6, align 4
  %58 = and i32 %57, 16711679
  store i32 %58, ptr %6, align 4
  %59 = load ptr, ptr @manuf_hashtable, align 8
  %60 = load i32, ptr %6, align 4
  %61 = zext i32 %60 to i64
  %62 = inttoptr i64 %61 to ptr
  %63 = call ptr @wmem_map_lookup(ptr noundef %59, ptr noundef %62)
  store ptr %63, ptr %8, align 8
  %64 = load ptr, ptr %8, align 8
  %65 = icmp ne ptr %64, null
  br i1 %65, label %66, label %74

66:                                               ; preds = %56
  %67 = load ptr, ptr %8, align 8
  %68 = getelementptr inbounds nuw %struct.hashmanuf, ptr %67, i32 0, i32 0
  %69 = load i8, ptr %68, align 1
  %70 = zext i8 %69 to i32
  %71 = or i32 %70, 1
  %72 = trunc i32 %71 to i8
  store i8 %72, ptr %68, align 1
  %73 = load ptr, ptr %8, align 8
  store ptr %73, ptr %3, align 8
  store i32 1, ptr %9, align 4
  br label %96

74:                                               ; preds = %56
  br label %75

75:                                               ; preds = %74, %52
  call void @llvm.lifetime.start.p0(i64 8, ptr %10) #16
  call void @llvm.lifetime.start.p0(i64 8, ptr %11) #16
  %76 = load ptr, ptr %4, align 8
  %77 = call ptr @ws_manuf_lookup_oui24(ptr noundef %76, ptr noundef %11)
  store ptr %77, ptr %10, align 8
  %78 = load ptr, ptr %10, align 8
  %79 = icmp ne ptr %78, null
  br i1 %79, label %80, label %85

80:                                               ; preds = %75
  %81 = load ptr, ptr %4, align 8
  %82 = load ptr, ptr %10, align 8
  %83 = load ptr, ptr %11, align 8
  %84 = call ptr @manuf_hash_new_entry(ptr noundef %81, ptr noundef %82, ptr noundef %83)
  store ptr %84, ptr %8, align 8
  br label %88

85:                                               ; preds = %75
  %86 = load ptr, ptr %4, align 8
  %87 = call ptr @manuf_hash_new_entry(ptr noundef %86, ptr noundef null, ptr noundef null)
  store ptr %87, ptr %8, align 8
  br label %88

88:                                               ; preds = %85, %80
  %89 = load ptr, ptr %8, align 8
  %90 = getelementptr inbounds nuw %struct.hashmanuf, ptr %89, i32 0, i32 0
  %91 = load i8, ptr %90, align 1
  %92 = zext i8 %91 to i32
  %93 = or i32 %92, 1
  %94 = trunc i32 %93 to i8
  store i8 %94, ptr %90, align 1
  %95 = load ptr, ptr %8, align 8
  store ptr %95, ptr %3, align 8
  store i32 1, ptr %9, align 4
  call void @llvm.lifetime.end.p0(i64 8, ptr %11) #16
  call void @llvm.lifetime.end.p0(i64 8, ptr %10) #16
  br label %96

96:                                               ; preds = %88, %66, %44
  call void @llvm.lifetime.end.p0(i64 8, ptr %8) #16
  call void @llvm.lifetime.end.p0(i64 1, ptr %7) #16
  call void @llvm.lifetime.end.p0(i64 4, ptr %6) #16
  %97 = load ptr, ptr %3, align 8
  ret ptr %97
}