; Function Attrs: null_pointer_is_valid sspstrong uwtable
define internal fastcc ptr @manuf_name_lookup(ptr noundef %0) unnamed_addr #3 {
  %2 = alloca ptr, align 8
  %3 = load i8, ptr %0, align 1
  %4 = zext i8 %3 to i32
  %5 = getelementptr i8, ptr %0, i64 1
  %6 = load i8, ptr %5, align 1
  %7 = zext i8 %6 to i32
  %8 = shl nuw nsw i32 %4, 16
  %9 = shl nuw nsw i32 %7, 8
  %10 = getelementptr i8, ptr %0, i64 2
  %11 = load i8, ptr %10, align 1
  %12 = zext i8 %11 to i32
  %13 = or disjoint i32 %8, %12
  %14 = or disjoint i32 %13, %9
  %15 = load ptr, ptr @manuf_hashtable, align 8
  %16 = zext nneg i32 %14 to i64
  %17 = inttoptr i64 %16 to ptr
  %18 = tail call ptr @wmem_map_lookup(ptr noundef %15, ptr noundef %17)
  %.not = icmp eq ptr %18, null
  br i1 %.not, label %22, label %19

19:                                               ; preds = %1
  %20 = load i8, ptr %18, align 1
  %21 = or i8 %20, 1
  store i8 %21, ptr %18, align 1
  br label %62

22:                                               ; preds = %1
  %23 = and i32 %4, 1
  %.not30 = icmp eq i32 %23, 0
  br i1 %.not30, label %33, label %24

24:                                               ; preds = %22
  %25 = and i32 %14, 16711679
  %26 = load ptr, ptr @manuf_hashtable, align 8
  %27 = zext nneg i32 %25 to i64
  %28 = inttoptr i64 %27 to ptr
  %29 = tail call ptr @wmem_map_lookup(ptr noundef %26, ptr noundef %28)
  %.not31 = icmp eq ptr %29, null
  br i1 %.not31, label %33, label %30

30:                                               ; preds = %24
  %31 = load i8, ptr %29, align 1
  %32 = or i8 %31, 1
  store i8 %32, ptr %29, align 1
  br label %62

33:                                               ; preds = %24, %22
  call void @llvm.lifetime.start.p0(i64 8, ptr nonnull %2) #24
  %34 = call ptr @ws_manuf_lookup_oui24(ptr noundef %0, ptr noundef nonnull %2)
  %.not32 = icmp eq ptr %34, null
  br i1 %.not32, label %38, label %35

35:                                               ; preds = %33
  %36 = load ptr, ptr %2, align 8
  %37 = call fastcc ptr @manuf_hash_new_entry(ptr noundef %0, ptr noundef nonnull %34, ptr noundef %36)
  br label %59

38:                                               ; preds = %33
  %39 = load i8, ptr %0, align 1
  %40 = load i8, ptr %5, align 1
  %41 = load i8, ptr %10, align 1
  %42 = load ptr, ptr @addr_resolv_scope, align 8
  %43 = call noalias dereferenceable_or_null(141) ptr @wmem_alloc(ptr noundef %42, i64 noundef 141) #26
  %44 = getelementptr inbounds nuw i8, ptr %43, i64 1
  call void @llvm.memcpy.p0.p0.i64(ptr noundef nonnull align 1 dereferenceable(3) %44, ptr noundef align 1 dereferenceable(3) %0, i64 noundef 3, i1 noundef false) #24
  store i8 0, ptr %43, align 1
  %45 = getelementptr inbounds nuw i8, ptr %43, i64 13
  store i8 0, ptr %45, align 1
  %46 = getelementptr inbounds nuw i8, ptr %43, i64 77
  store i8 0, ptr %46, align 1
  %47 = zext i8 %39 to i64
  %48 = shl nuw nsw i64 %47, 16
  %49 = zext i8 %40 to i64
  %50 = shl nuw nsw i64 %49, 8
  %51 = or disjoint i64 %50, %48
  %52 = zext i8 %41 to i64
  %53 = or disjoint i64 %51, %52
  %54 = getelementptr inbounds nuw i8, ptr %43, i64 4
  %55 = call ptr @bytes_to_hexstr_punct(ptr noundef nonnull %54, ptr noundef %0, i64 noundef 3, i8 noundef signext 58)
  store i8 0, ptr %55, align 1
  %56 = load ptr, ptr @manuf_hashtable, align 8
  %57 = inttoptr i64 %53 to ptr
  %58 = call ptr @wmem_map_insert(ptr noundef %56, ptr noundef %57, ptr noundef %43)
  br label %59

59:                                               ; preds = %38, %35
  %.026 = phi ptr [ %37, %35 ], [ %43, %38 ]
  %60 = load i8, ptr %.026, align 1
  %61 = or i8 %60, 1
  store i8 %61, ptr %.026, align 1
  call void @llvm.lifetime.end.p0(i64 8, ptr nonnull %2) #24
  br label %62

62:                                               ; preds = %59, %30, %19
  %.0 = phi ptr [ %18, %19 ], [ %29, %30 ], [ %.026, %59 ]
  ret ptr %.0
}